target datalayout = "e-m:e-p270:32:32-p271:32:32-p272:64:64-i64:64-i128:128-f80:128-n8:16:32:64-S128"
target triple = "x86_64-pc-linux-gnu"

@.str.155 = private unnamed_addr constant [58 x i8] c"cli_wm_decrypt_macro: Unable to allocate memory for buff\0A\00", align 1
@.str.204 = private unnamed_addr constant [14 x i8] c"lseek failed\0A\00", align 1

; Function Attrs: nounwind uwtable
define internal i32 @seekandread(i32 noundef %0, i64 noundef %1, i32 noundef %2, ptr noundef %3, i64 noundef %4) #0 {
  %6 = alloca i32, align 4
  %7 = alloca i32, align 4
  %8 = alloca i64, align 8
  %9 = alloca i32, align 4
  %10 = alloca ptr, align 8
  %11 = alloca i64, align 8
  store i32 %0, ptr %7, align 4
  store i64 %1, ptr %8, align 8
  store i32 %2, ptr %9, align 4
  store ptr %3, ptr %10, align 8
  store i64 %4, ptr %11, align 8
  %12 = load i32, ptr %7, align 4
  %13 = load i64, ptr %8, align 8
  %14 = load i32, ptr %9, align 4
  %15 = call i64 @lseek(i32 noundef %12, i64 noundef %13, i32 noundef %14) #8
  %16 = icmp eq i64 %15, -1
  br i1 %16, label %17, label %18

17:                                               ; preds = %5
  call void (ptr, ...) @cli_dbgmsg(ptr noundef @.str.204)
  store i32 0, ptr %6, align 4
  br label %26

18:                                               ; preds = %5
  %19 = load i32, ptr %7, align 4
  %20 = load ptr, ptr %10, align 8
  %21 = load i64, ptr %11, align 8
  %22 = call i64 @cli_readn(i32 noundef %19, ptr noundef %20, i64 noundef %21)
  %23 = load i64, ptr %11, align 8
  %24 = icmp eq i64 %22, %23
  %25 = zext i1 %24 to i32
  store i32 %25, ptr %6, align 4
  br label %26

26:                                               ; preds = %18, %17
  %27 = load i32, ptr %6, align 4
  ret i32 %27
}

; Function Attrs: nounwind uwtable
define ptr @cli_wm_decrypt_macro(i32 noundef %0, i64 noundef %1, i32 noundef %2, i8 noundef zeroext %3) #0 {
  %5 = alloca ptr, align 8
  %6 = alloca i32, align 4
  %7 = alloca i64, align 8
  %8 = alloca i32, align 4
  %9 = alloca i8, align 1
  %10 = alloca ptr, align 8
  %11 = alloca ptr, align 8
  store i32 %0, ptr %6, align 4
  store i64 %1, ptr %7, align 8
  store i32 %2, ptr %8, align 4
  store i8 %3, ptr %9, align 1
  %12 = load i32, ptr %8, align 4
  %13 = icmp eq i32 %12, 0
  br i1 %13, label %14, label %15

14:                                               ; preds = %4
  store ptr null, ptr %5, align 8
  br label %62

15:                                               ; preds = %4
  %16 = load i32, ptr %6, align 4
  %17 = icmp slt i32 %16, 0
  br i1 %17, label %18, label %19

18:                                               ; preds = %15
  store ptr null, ptr %5, align 8
  br label %62

19:                                               ; preds = %15
  %20 = load i32, ptr %8, align 4
  %21 = zext i32 %20 to i64
  %22 = call ptr @cli_max_malloc(i64 noundef %21)
  store ptr %22, ptr %10, align 8
  %23 = load ptr, ptr %10, align 8
  %24 = icmp eq ptr %23, null
  br i1 %24, label %25, label %26

25:                                               ; preds = %19
  call void (ptr, ...) @cli_errmsg(ptr noundef @.str.155)
  store ptr null, ptr %5, align 8
  br label %62

26:                                               ; preds = %19
  %27 = load i32, ptr %6, align 4
  %28 = load i64, ptr %7, align 8
  %29 = load ptr, ptr %10, align 8
  %30 = load i32, ptr %8, align 4
  %31 = zext i32 %30 to i64
  %32 = call i32 @seekandread(i32 noundef %27, i64 noundef %28, i32 noundef 0, ptr noundef %29, i64 noundef %31)
  %33 = icmp ne i32 %32, 0
  br i1 %33, label %36, label %34

34:                                               ; preds = %26
  %35 = load ptr, ptr %10, align 8
  call void @free(ptr noundef %35) #8
  store ptr null, ptr %5, align 8
  br label %62

36:                                               ; preds = %26
  %37 = load i8, ptr %9, align 1
  %38 = icmp ne i8 %37, 0
  br i1 %38, label %39, label %60

39:                                               ; preds = %36
  %40 = load ptr, ptr %10, align 8
  store ptr %40, ptr %11, align 8
  br label %41

41:                                               ; preds = %56, %39
  %42 = load ptr, ptr %11, align 8
  %43 = load ptr, ptr %10, align 8
  %44 = load i32, ptr %8, align 4
  %45 = zext i32 %44 to i64
  %46 = getelementptr inbounds i8, ptr %43, i64 %45
  %47 = icmp ult ptr %42, %46
  br i1 %47, label %48, label %59

48:                                               ; preds = %41
  %49 = load i8, ptr %9, align 1
  %50 = zext i8 %49 to i32
  %51 = load ptr, ptr %11, align 8
  %52 = load i8, ptr %51, align 1
  %53 = zext i8 %52 to i32
  %54 = xor i32 %53, %50
  %55 = trunc i32 %54 to i8
  store i8 %55, ptr %51, align 1
  br label %56

56:                                               ; preds = %48
  %57 = load ptr, ptr %11, align 8
  %58 = getelementptr inbounds i8, ptr %57, i32 1
  store ptr %58, ptr %11, align 8
  br label %41

59:                                               ; preds = %41
  br label %60

60:                                               ; preds = %59, %36
  %61 = load ptr, ptr %10, align 8
  store ptr %61, ptr %5, align 8
  br label %62

62:                                               ; preds = %60, %34, %25, %18, %14
  %63 = load ptr, ptr %5, align 8
  ret ptr %63
}