; Function Attrs: nounwind uwtable
define ptr @cli_wm_decrypt_macro(i32 noundef %0, i64 noundef %1, i32 noundef %2, i8 noundef zeroext %3) local_unnamed_addr #0 {
  %5 = icmp eq i32 %2, 0
  %6 = icmp slt i32 %0, 0
  %or.cond = or i1 %6, %5
  br i1 %or.cond, label %.loopexit, label %7

7:                                                ; preds = %4
  %8 = zext i32 %2 to i64
  %9 = tail call ptr @cli_max_malloc(i64 noundef %8) #17
  %10 = icmp eq ptr %9, null
  br i1 %10, label %11, label %12

11:                                               ; preds = %7
  tail call void (ptr, ...) @cli_errmsg(ptr noundef nonnull @.str.155) #17
  br label %.loopexit

12:                                               ; preds = %7
  %13 = tail call i64 @lseek(i32 noundef %0, i64 noundef %1, i32 noundef 0) #17
  %14 = icmp eq i64 %13, -1
  br i1 %14, label %seekandread.exit.thread, label %seekandread.exit

seekandread.exit.thread:                          ; preds = %12
  tail call void (ptr, ...) @cli_dbgmsg(ptr noundef nonnull @.str.204) #17
  br label %16

seekandread.exit:                                 ; preds = %12
  %15 = tail call i64 @cli_readn(i32 noundef %0, ptr noundef nonnull %9, i64 noundef %8) #17
  %.not = icmp eq i64 %15, %8
  br i1 %.not, label %17, label %16

16:                                               ; preds = %seekandread.exit.thread, %seekandread.exit
  tail call void @free(ptr noundef nonnull %9) #17
  br label %.loopexit

17:                                               ; preds = %seekandread.exit
  %.not23 = icmp eq i8 %3, 0
  br i1 %.not23, label %.loopexit, label %.lr.ph.preheader

.lr.ph.preheader:                                 ; preds = %17
  %18 = getelementptr inbounds i8, ptr %9, i64 %8
  br label %.lr.ph

.lr.ph:                                           ; preds = %.lr.ph.preheader, %.lr.ph
  %.026 = phi ptr [ %21, %.lr.ph ], [ %9, %.lr.ph.preheader ]
  %19 = load i8, ptr %.026, align 1
  %20 = xor i8 %19, %3
  store i8 %20, ptr %.026, align 1
  %21 = getelementptr inbounds i8, ptr %.026, i64 1
  %22 = icmp ult ptr %21, %18
  br i1 %22, label %.lr.ph, label %.loopexit

.loopexit:                                        ; preds = %.lr.ph, %17, %4, %16, %11
  %.018 = phi ptr [ null, %11 ], [ null, %16 ], [ null, %4 ], [ %9, %17 ], [ %9, %.lr.ph ]
  ret ptr %.018
}